ccopy_reg
_reconstructor
p0
(cgoogle.oauth2.credentials
Credentials
p1
c__builtin__
object
p2
Ntp3
Rp4
(dp5
S'_token_uri'
p6
Vhttps://oauth2.googleapis.com/token
p7
sS'_client_secret'
p8
V-ucxyH8uI6znUcbPd_Jgthc3
p9
sS'_id_token'
p10
NsS'token'
p11
Vya29.GltRB0IVl-JD5_ahNSB8AGrVit9HiH86eGrn4mINlyFTsK3Z08M6NUpHAtmKCfEnAv31ua_X9elsyoCHwtwT4wiRZ5BKZwe8VgLiYNVXAtFE7a3MFN9JHxfuYFWV
p12
sS'_refresh_token'
p13
V1/apFrPSaKqMo0twHb-xIkXulJgPU1x59JZpQ-aqb94OA
p14
sS'_scopes'
p15
(lp16
S'https://www.googleapis.com/auth/spreadsheets.readonly'
p17
asS'_client_id'
p18
V219439805803-k1n47l6mnd83ct3e53v17ajbo3svrtbg.apps.googleusercontent.com
p19
sS'expiry'
p20
cdatetime
datetime
p21
(S'\x07\xe3\x07\x1a\x0f\x16\x1c\x06\xba\xa8'
p22
tp23
Rp24
sb.